Certificate:
    Data:
        Version: 3 (0x2)
        Serial Number: 1 (0x1)
    Signature Algorithm: sha256WithRSAEncryption
        Issuer: C=CN, ST=shanghai, L=shanghai, O=lk, OU=dev, CN=go
        Validity
            Not Before: Jul 16 03:46:09 2018 GMT
            Not After : Jul 16 03:46:09 2019 GMT
        Subject: C=CN, ST=shanghai, O=lk, OU=dev, CN=go
        Subject Public Key Info:
            Public Key Algorithm: rsaEncryption
                Public-Key: (1024 bit)
                Modulus:
                    00:ab:cb:fc:69:c0:86:1b:6b:02:4c:d2:99:7e:ff:
                    a7:7c:48:40:df:63:c5:b6:6b:14:a8:37:55:34:2d:
                    7e:e7:e8:7f:e1:69:43:63:65:9e:3a:a4:d2:74:28:
                    2f:88:8c:27:97:94:cd:cd:88:e3:32:29:a9:1f:ed:
                    4b:35:b0:37:97:ef:bf:95:99:21:e8:ba:05:87:c3:
                    c3:ee:a1:11:e1:d3:f8:60:9b:b6:2b:28:c3:7e:0a:
                    8e:18:75:3c:6e:a3:fc:d1:ac:71:dc:3b:23:f5:13:
                    16:96:68:c3:2d:ca:7d:14:e6:3c:aa:00:44:8d:15:
                    df:36:86:44:0b:d2:9e:cc:0d
                Exponent: 65537 (0x10001)
        X509v3 extensions:
            X509v3 Basic Constraints: 
                CA:FALSE
            Netscape Comment: 
                OpenSSL Generated Certificate
            X509v3 Subject Key Identifier: 
                F9:38:58:7A:F7:CF:83:55:D4:D7:99:9D:EB:08:0E:18:1D:8C:F1:E4
            X509v3 Authority Key Identifier: 
                DirName:/C=CN/ST=shanghai/L=shanghai/O=lk/OU=dev/CN=go
                serial:AC:CB:93:74:98:AC:75:80

    Signature Algorithm: sha256WithRSAEncryption
         28:f0:91:d2:5d:4f:fc:d4:cd:db:f2:e0:72:de:7b:08:1f:67:
         28:d2:08:b3:6c:79:74:f0:c3:24:c6:29:77:a0:45:85:f7:2e:
         d5:7d:46:1b:ed:b0:7c:84:91:f7:dd:02:a3:b3:9d:00:a7:83:
         53:25:56:f3:9b:e8:08:8e:13:fc:bb:54:27:9f:ab:86:52:a0:
         61:d7:d9:07:b9:ea:bc:d5:ee:bb:1f:b4:49:24:b8:3a:f1:e4:
         33:2f:7b:5c:15:cc:e5:fe:8a:73:2f:ac:d4:a7:9a:e5:7a:a8:
         65:7c:8c:28:56:a7:02:26:6f:cf:e9:70:f6:dc:9f:a0:1f:d7:
         da:05:96:ef:3c:e6:a8:64:69:76:bb:7c:63:6a:be:96:74:b9:
         b1:44:d5:fa:0a:e1:3a:07:75:38:85:6b:07:37:2a:4a:0a:67:
         da:74:29:46:51:9b:ae:af:3d:6d:ce:ed:24:33:2f:a8:12:4b:
         f5:dd:a6:71:87:1f:60:f0:26:4e:4b:6f:4b:c4:a9:35:18:5c:
         20:07:e2:cd:aa:b8:74:6e:17:4b:bc:bb:68:5c:ca:79:d9:fb:
         60:5a:61:ac:42:3a:bd:ee:5d:47:df:87:01:98:dd:e5:6a:80:
         d3:bf:a7:3e:de:87:02:9b:26:6b:79:f3:d6:ff:79:3b:e3:da:
         97:15:69:f4
-----BEGIN CERTIFICATE-----
MIIDbTCCAlWgAwIBAgIBATANBgkqhkiG9w0BAQsFADBbMQswCQYDVQQGEwJDTjER
MA8GA1UECAwIc2hhbmdoYWkxETAPBgNVBAcMCHNoYW5naGFpMQswCQYDVQQKDAJs
azEMMAoGA1UECwwDZGV2MQswCQYDVQQDDAJnbzAeFw0xODA3MTYwMzQ2MDlaFw0x
OTA3MTYwMzQ2MDlaMEgxCzAJBgNVBAYTAkNOMREwDwYDVQQIDAhzaGFuZ2hhaTEL
MAkGA1UECgwCbGsxDDAKBgNVBAsMA2RldjELMAkGA1UEAwwCZ28wgZ8wDQYJKoZI
hvcNAQEBBQADgY0AMIGJAoGBAKvL/GnAhhtrAkzSmX7/p3xIQN9jxbZrFKg3VTQt
fufof+FpQ2Nlnjqk0nQoL4iMJ5eUzc2I4zIpqR/tSzWwN5fvv5WZIei6BYfDw+6h
EeHT+GCbtisow34Kjhh1PG6j/NGscdw7I/UTFpZowy3KfRTmPKoARI0V3zaGRAvS
nswNAgMBAAGjgdIwgc8wCQYDVR0TBAIwADAsBglghkgBhvhCAQ0EHxYdT3BlblNT
TCBHZW5lcmF0ZWQgQ2VydGlmaWNhdGUwHQYDVR0OBBYEFPk4WHr3z4NV1NeZnesI
DhgdjPHkMHUGA1UdIwRuMGyhX6RdMFsxCzAJBgNVBAYTAkNOMREwDwYDVQQIDAhz
aGFuZ2hhaTERMA8GA1UEBwwIc2hhbmdoYWkxCzAJBgNVBAoMAmxrMQwwCgYDVQQL
DANkZXYxCzAJBgNVBAMMAmdvggkArMuTdJisdYAwDQYJKoZIhvcNAQELBQADggEB
ACjwkdJdT/zUzdvy4HLeewgfZyjSCLNseXTwwyTGKXegRYX3LtV9RhvtsHyEkffd
AqOznQCng1MlVvOb6AiOE/y7VCefq4ZSoGHX2Qe56rzV7rsftEkkuDrx5DMve1wV
zOX+inMvrNSnmuV6qGV8jChWpwImb8/pcPbcn6Af19oFlu885qhkaXa7fGNqvpZ0
ubFE1foK4ToHdTiFawc3KkoKZ9p0KUZRm66vPW3O7SQzL6gSS/XdpnGHH2DwJk5L
b0vEqTUYXCAH4s2quHRuF0u8u2hcynnZ+2BaYaxCOr3uXUffhwGY3eVqgNO/pz7e
hwKbJmt589b/eTvj2pcVafQ=
-----END CERTIFICATE-----
-----BEGIN RSA PRIVATE KEY-----
Proc-Type: 4,ENCRYPTED
DEK-Info: DES-EDE3-CBC,BED83259605CF465

6qQutGeoOTlMNMBbg8SSRcu49fedmVpOS7DL8WL0Z7CyqvQsAhwjPQ45Fdx5sSzW
0bapgRJrhAu2sCNfHVMdC+cIlAasSw4G56NRZFz9F7UEFbuGXrHaIUoITe+xlZDy
ktAYANTAUf/cmtSXjS3eX7t6Jt59z3j5QANBmdCICnmc3YRIdXTHMLirZX1qmsiF
YIw2q525Q0ZXAermojYtc1bzJPyt35cJxuNtPNcRSBVN0pbkeOqkd7cxRgaCGlDR
+VntWx2DtMANG2g/cpL3X26ii/o9L6istlu9OQHHWYG1p2JBCTk7PcPQ6PYp6qS3
1aPPVsppkkPRkgDkcc4/qVsnwNMpOFCYlLI6RJqXhNqxGskUfTDkHlACaCEgvulE
wqsUVOb3kKYtTDiSQfPSss6lLVbDwmQBaW4Ch7X4X4AGWG0rSQ5vtVWvWe2i7UkK
sJQnvpd5gEtJ1Z2w6rdXJNpmDQXcP38Y72bAE7ob69rAhvlrZJbS01fYSRF8RvCl
ztkal5nCvwY6IJxFZTdFC2Sep6SjPSbaxgxtrBELWCY+j12igFHXiF1KxZA/b1Sk
GESA08LDOjPnUR9lWijfuus6cmQY3hIiYTJvFk3ETYqosdoEHrRi6NTks/KzbOTs
cD1DyMkw2vxaIzu3a3kUyAniuj3Tt0NA3wOHeeJnvE2y4WjmqZAQ4+pK4OkPkfBt
AaFe6jHl5wStFSD1VggunaR/A9xyIAZEUY8bSKtCPLO9KqxVh/lkZoksUSGvzcO5
6+MNTQiGEVQfi+FNQoQH8Q+032LeiMttcADrSHvYn3w=
-----END RSA PRIVATE KEY-----
